target datalayout = "e-m:e-p270:32:32-p271:32:32-p272:64:64-i64:64-i128:128-f80:128-n8:16:32:64-S128"
target triple = "x86_64-pc-linux-gnu"

; Function Attrs: mustprogress nounwind uwtable
define noundef i64 @_ZN6LibRaw7strnlenEPKcm(ptr noundef %0, i64 noundef %1) #1 align 2 {
  %3 = alloca ptr, align 8
  %4 = alloca i64, align 8
  %5 = alloca ptr, align 8
  store ptr %0, ptr %3, align 8, !tbaa !77
  store i64 %1, ptr %4, align 8, !tbaa !78
  call void @llvm.lifetime.start.p0(i64 8, ptr %5) #7
  %6 = load ptr, ptr %3, align 8, !tbaa !77
  %7 = load i64, ptr %4, align 8, !tbaa !78
  %8 = call noundef ptr @memchr(ptr noundef %6, i32 noundef 0, i64 noundef %7) #8
  store ptr %8, ptr %5, align 8, !tbaa !77
  %9 = load ptr, ptr %5, align 8, !tbaa !77
  %10 = icmp ne ptr %9, null
  br i1 %10, label %11, label %17

11:                                               ; preds = %2
  %12 = load ptr, ptr %5, align 8, !tbaa !77
  %13 = load ptr, ptr %3, align 8, !tbaa !77
  %14 = ptrtoint ptr %12 to i64
  %15 = ptrtoint ptr %13 to i64
  %16 = sub i64 %14, %15
  br label %19

17:                                               ; preds = %2
  %18 = load i64, ptr %4, align 8, !tbaa !78
  br label %19

19:                                               ; preds = %17, %11
  %20 = phi i64 [ %16, %11 ], [ %18, %17 ]
  call void @llvm.lifetime.end.p0(i64 8, ptr %5) #7
  ret i64 %20
}