; Function Attrs: mustprogress nofree nounwind willreturn memory(argmem: read) uwtable
define noundef i64 @_ZN6LibRaw7strnlenEPKcm(ptr noundef %0, i64 noundef %1) local_unnamed_addr #1 align 2 {
  %3 = tail call noundef ptr @memchr(ptr noundef %0, i32 noundef 0, i64 noundef %1) #16
  %.not = icmp eq ptr %3, null
  %4 = ptrtoint ptr %3 to i64
  %5 = ptrtoint ptr %0 to i64
  %6 = sub i64 %4, %5
  %7 = select i1 %.not, i64 %1, i64 %6
  ret i64 %7
}